target datalayout = "e-m:e-p270:32:32-p271:32:32-p272:64:64-i64:64-i128:128-f80:128-n8:16:32:64-S128"
target triple = "x86_64-pc-linux-gnu"

%"class.base::FilePath" = type { %"class.std::__cxx11::basic_string" }
%"class.std::__cxx11::basic_string" = type { %"struct.std::__cxx11::basic_string<char>::_Alloc_hider", i64, %union.anon }
%"struct.std::__cxx11::basic_string<char>::_Alloc_hider" = type { ptr }
%union.anon = type { i64, [8 x i8] }

; Function Attrs: mustprogress uwtable
define noundef ptr @_ZN4base26CreateAndOpenTemporaryFileEPNS_8FilePathE(ptr noundef %0) #0 personality ptr @__gxx_personality_v0 {
  %2 = alloca ptr, align 8
  %3 = alloca ptr, align 8
  %4 = alloca %"class.base::FilePath", align 8
  %5 = alloca ptr, align 8
  %6 = alloca i32, align 4
  %7 = alloca i32, align 4
  store ptr %0, ptr %3, align 8, !tbaa !3
  call void @llvm.lifetime.start.p0(i64 32, ptr %4) #14
  call void @_ZN4base8FilePathC1Ev(ptr noundef nonnull align 8 dereferenceable(32) %4)
  %8 = invoke noundef zeroext i1 @_ZN4base10GetTempDirEPNS_8FilePathE(ptr noundef %4)
          to label %9 unwind label %11

9:                                                ; preds = %1
  br i1 %8, label %15, label %10

10:                                               ; preds = %9
  store ptr null, ptr %2, align 8
  store i32 1, ptr %7, align 4
  br label %19

11:                                               ; preds = %15, %1
  %12 = landingpad { ptr, i32 }
          cleanup
  %13 = extractvalue { ptr, i32 } %12, 0
  store ptr %13, ptr %5, align 8
  %14 = extractvalue { ptr, i32 } %12, 1
  store i32 %14, ptr %6, align 4
  call void @_ZN4base8FilePathD1Ev(ptr noundef nonnull align 8 dereferenceable(32) %4) #14
  call void @llvm.lifetime.end.p0(i64 32, ptr %4) #14
  br label %21

15:                                               ; preds = %9
  %16 = load ptr, ptr %3, align 8, !tbaa !3
  %17 = invoke noundef ptr @_ZN4base31CreateAndOpenTemporaryFileInDirERKNS_8FilePathEPS0_(ptr noundef nonnull align 8 dereferenceable(32) %4, ptr noundef %16)
          to label %18 unwind label %11

18:                                               ; preds = %15
  store ptr %17, ptr %2, align 8
  store i32 1, ptr %7, align 4
  br label %19

19:                                               ; preds = %18, %10
  call void @_ZN4base8FilePathD1Ev(ptr noundef nonnull align 8 dereferenceable(32) %4) #14
  call void @llvm.lifetime.end.p0(i64 32, ptr %4) #14
  %20 = load ptr, ptr %2, align 8
  ret ptr %20

21:                                               ; preds = %11
  %22 = load ptr, ptr %5, align 8
  %23 = load i32, ptr %6, align 4
  %24 = insertvalue { ptr, i32 } poison, ptr %22, 0
  %25 = insertvalue { ptr, i32 } %24, i32 %23, 1
  resume { ptr, i32 } %25
}