; Function Attrs: mustprogress uwtable
define noundef ptr @_ZN4base26CreateAndOpenTemporaryFileEPNS_8FilePathE(ptr noundef %0) local_unnamed_addr #0 personality ptr @__gxx_personality_v0 {
  %2 = alloca %"class.base::FilePath", align 8
  call void @llvm.lifetime.start.p0(i64 32, ptr nonnull %2) #16
  call void @_ZN4base8FilePathC1Ev(ptr noundef nonnull align 8 dereferenceable(32) %2)
  %3 = invoke noundef zeroext i1 @_ZN4base10GetTempDirEPNS_8FilePathE(ptr noundef nonnull %2)
          to label %4 unwind label %5

4:                                                ; preds = %1
  br i1 %3, label %7, label %9

5:                                                ; preds = %7, %1
  %6 = landingpad { ptr, i32 }
          cleanup
  call void @_ZN4base8FilePathD1Ev(ptr noundef nonnull align 8 dereferenceable(32) %2) #16
  call void @llvm.lifetime.end.p0(i64 32, ptr nonnull %2) #16
  resume { ptr, i32 } %6

7:                                                ; preds = %4
  %8 = invoke noundef ptr @_ZN4base31CreateAndOpenTemporaryFileInDirERKNS_8FilePathEPS0_(ptr noundef nonnull align 8 dereferenceable(32) %2, ptr noundef %0)
          to label %9 unwind label %5

9:                                                ; preds = %7, %4
  %.0 = phi ptr [ null, %4 ], [ %8, %7 ]
  call void @_ZN4base8FilePathD1Ev(ptr noundef nonnull align 8 dereferenceable(32) %2) #16
  call void @llvm.lifetime.end.p0(i64 32, ptr nonnull %2) #16
  ret ptr %.0
}